; Function Attrs: nounwind uwtable
define ptr @l_Lean_Elab_OpenDecl_resolveNameUsingNamespaces___rarg___lambda__3(ptr noundef %0, ptr noundef %1, ptr noundef %2, ptr noundef %3, ptr noundef %4, ptr noundef %5, ptr noundef %6, ptr noundef %7, ptr noundef %8, ptr noundef %9, ptr noundef %10, ptr noundef %11) #0 {
  %13 = getelementptr inbounds nuw i8, ptr %0, i64 8
  %14 = load ptr, ptr %13, align 8, !tbaa !4
  %15 = ptrtoint ptr %14 to i64
  %16 = and i64 %15, 1
  %.not = icmp eq i64 %16, 0
  br i1 %.not, label %17, label %lean_inc.exit30

17:                                               ; preds = %12
  %.val.i = load i32, ptr %14, align 4, !tbaa !8
  %18 = icmp sgt i32 %.val.i, 0
  br i1 %18, label %19, label %21, !prof !11

19:                                               ; preds = %17
  %20 = add nuw i32 %.val.i, 1
  store i32 %20, ptr %14, align 4, !tbaa !8
  br label %lean_inc.exit30

21:                                               ; preds = %17
  %.not.i31 = icmp eq i32 %.val.i, 0
  br i1 %.not.i31, label %lean_inc.exit30, label %22

22:                                               ; preds = %21
  tail call void @lean_inc_ref_cold(ptr noundef nonnull %14) #6
  br label %lean_inc.exit30

lean_inc.exit30:                                  ; preds = %22, %21, %19, %12
  %23 = ptrtoint ptr %0 to i64
  %24 = and i64 %23, 1
  %.not35 = icmp eq i64 %24, 0
  br i1 %.not35, label %25, label %lean_dec.exit

25:                                               ; preds = %lean_inc.exit30
  %26 = load i32, ptr %0, align 4, !tbaa !8
  %27 = icmp sgt i32 %26, 1
  br i1 %27, label %28, label %30, !prof !11

28:                                               ; preds = %25
  %29 = add nsw i32 %26, -1
  store i32 %29, ptr %0, align 4, !tbaa !8
  br label %lean_dec.exit

30:                                               ; preds = %25
  %.not.i = icmp eq i32 %26, 0
  br i1 %.not.i, label %lean_dec.exit, label %31

31:                                               ; preds = %30
  tail call void @lean_dec_ref_cold(ptr noundef nonnull %0) #6
  br label %lean_dec.exit

lean_dec.exit:                                    ; preds = %31, %30, %28, %lean_inc.exit30
  %32 = ptrtoint ptr %10 to i64
  %33 = and i64 %32, 1
  %.not36 = icmp eq i64 %33, 0
  br i1 %.not36, label %34, label %lean_inc.exit

34:                                               ; preds = %lean_dec.exit
  %.val.i32 = load i32, ptr %10, align 4, !tbaa !8
  %35 = icmp sgt i32 %.val.i32, 0
  br i1 %35, label %36, label %38, !prof !11

36:                                               ; preds = %34
  %37 = add nuw i32 %.val.i32, 1
  store i32 %37, ptr %10, align 4, !tbaa !8
  br label %lean_inc.exit

38:                                               ; preds = %34
  %.not.i33 = icmp eq i32 %.val.i32, 0
  br i1 %.not.i33, label %lean_inc.exit, label %39

39:                                               ; preds = %38
  tail call void @lean_inc_ref_cold(ptr noundef nonnull %10) #6
  br label %lean_inc.exit

lean_inc.exit:                                    ; preds = %39, %38, %36, %lean_dec.exit
  tail call void @lean_inc_heartbeat() #6
  %40 = tail call noalias ptr @mi_malloc_small(i64 noundef 112) #6
  %41 = icmp eq ptr %40, null
  br i1 %41, label %42, label %lean_alloc_closure.exit

42:                                               ; preds = %lean_inc.exit
  tail call void @lean_internal_panic_out_of_memory() #7
  unreachable

lean_alloc_closure.exit:                          ; preds = %lean_inc.exit
  %43 = getelementptr inbounds nuw i8, ptr %40, i64 4
  store i32 1, ptr %40, align 4, !tbaa !8
  store i32 -184549264, ptr %43, align 4
  %44 = getelementptr inbounds nuw i8, ptr %40, i64 8
  store ptr @l_Lean_Elab_OpenDecl_resolveNameUsingNamespaces___rarg___lambda__2, ptr %44, align 8, !tbaa !4
  %45 = getelementptr inbounds nuw i8, ptr %40, i64 16
  store i16 12, ptr %45, align 8, !tbaa !12
  %46 = getelementptr inbounds nuw i8, ptr %40, i64 18
  store i16 11, ptr %46, align 2, !tbaa !12
  %47 = getelementptr inbounds nuw i8, ptr %40, i64 24
  store ptr %11, ptr %47, align 8, !tbaa !4
  %48 = getelementptr inbounds nuw i8, ptr %40, i64 32
  store ptr %1, ptr %48, align 8, !tbaa !4
  %49 = getelementptr inbounds nuw i8, ptr %40, i64 40
  store ptr %2, ptr %49, align 8, !tbaa !4
  %50 = getelementptr inbounds nuw i8, ptr %40, i64 48
  store ptr %3, ptr %50, align 8, !tbaa !4
  %51 = getelementptr inbounds nuw i8, ptr %40, i64 56
  store ptr %4, ptr %51, align 8, !tbaa !4
  %52 = getelementptr inbounds nuw i8, ptr %40, i64 64
  store ptr %5, ptr %52, align 8, !tbaa !4
  %53 = getelementptr inbounds nuw i8, ptr %40, i64 72
  store ptr %6, ptr %53, align 8, !tbaa !4
  %54 = getelementptr inbounds nuw i8, ptr %40, i64 80
  store ptr %7, ptr %54, align 8, !tbaa !4
  %55 = getelementptr inbounds nuw i8, ptr %40, i64 88
  store ptr %8, ptr %55, align 8, !tbaa !4
  %56 = getelementptr inbounds nuw i8, ptr %40, i64 96
  store ptr %9, ptr %56, align 8, !tbaa !4
  %57 = getelementptr inbounds nuw i8, ptr %40, i64 104
  store ptr %10, ptr %57, align 8, !tbaa !4
  %58 = tail call ptr @lean_apply_4(ptr noundef %10, ptr noundef nonnull inttoptr (i64 1 to ptr), ptr noundef nonnull inttoptr (i64 1 to ptr), ptr noundef %14, ptr noundef nonnull %40) #6
  ret ptr %58
}